; ModuleID = '32/1469.c'
source_filename = "32/1469.c"
target datalayout = "e-m:e-p270:32:32-p271:32:32-p272:64:64-i64:64-f80:128-n8:16:32:64-S128"
target triple = "x86_64-pc-linux-gnu"

@.str = private unnamed_addr constant [4 x i8] c"%d\0A\00", align 1
@.str.1 = private unnamed_addr constant [3 x i8] c"%d\00", align 1
@.str.2 = private unnamed_addr constant [2 x i8] c"\0A\00", align 1

; Function Attrs: noinline nounwind uwtable
define dso_local i32 @main() #0 {
  %1 = alloca i32, align 4
  %2 = alloca [110 x i32], align 16
  %3 = alloca i32, align 4
  %4 = alloca i32, align 4
  %5 = alloca i32, align 4
  %6 = alloca i32, align 4
  %7 = alloca i32, align 4
  %8 = alloca i32, align 4
  %9 = alloca [110 x i32], align 16
  %10 = alloca [110 x i8], align 16
  %11 = alloca [110 x i8], align 16
  store i32 0, i32* %1, align 4
  %12 = bitcast [110 x i32]* %2 to i8*
  call void @llvm.memset.p0i8.i64(i8* align 16 %12, i8 0, i64 440, i1 false)
  %13 = bitcast [110 x i32]* %9 to i8*
  call void @llvm.memset.p0i8.i64(i8* align 16 %13, i8 0, i64 440, i1 false)
  %14 = call i32 (i8*, ...) @__isoc99_scanf(i8* getelementptr inbounds ([4 x i8], [4 x i8]* @.str, i64 0, i64 0), i32* %5)
  store i32 1, i32* %3, align 4
  br label %15

15:                                               ; preds = %158, %0
  %16 = load i32, i32* %3, align 4
  %17 = load i32, i32* %5, align 4
  %18 = icmp sle i32 %16, %17
  br i1 %18, label %19, label %161

19:                                               ; preds = %15
  %20 = getelementptr inbounds [110 x i8], [110 x i8]* %10, i64 0, i64 0
  %21 = call i32 (i8*, ...) bitcast (i32 (...)* @gets to i32 (i8*, ...)*)(i8* %20)
  %22 = getelementptr inbounds [110 x i8], [110 x i8]* %10, i64 0, i64 0
  %23 = call i64 @strlen(i8* %22) #4
  %24 = trunc i64 %23 to i32
  store i32 %24, i32* %6, align 4
  %25 = getelementptr inbounds [110 x i8], [110 x i8]* %11, i64 0, i64 0
  %26 = call i32 (i8*, ...) bitcast (i32 (...)* @gets to i32 (i8*, ...)*)(i8* %25)
  %27 = getelementptr inbounds [110 x i8], [110 x i8]* %11, i64 0, i64 0
  %28 = call i64 @strlen(i8* %27) #4
  %29 = trunc i64 %28 to i32
  store i32 %29, i32* %7, align 4
  %30 = load i32, i32* %6, align 4
  store i32 %30, i32* %4, align 4
  br label %31

31:                                               ; preds = %48, %19
  %32 = load i32, i32* %4, align 4
  %33 = icmp sgt i32 %32, 0
  br i1 %33, label %34, label %51

34:                                               ; preds = %31
  %35 = load i32, i32* %4, align 4
  %36 = sub nsw i32 %35, 1
  %37 = sext i32 %36 to i64
  %38 = getelementptr inbounds [110 x i8], [110 x i8]* %10, i64 0, i64 %37
  %39 = load i8, i8* %38, align 1
  %40 = sext i8 %39 to i32
  %41 = sub nsw i32 %40, 48
  %42 = load i32, i32* %6, align 4
  %43 = load i32, i32* %4, align 4
  %44 = sub nsw i32 %42, %43
  %45 = add nsw i32 %44, 1
  %46 = sext i32 %45 to i64
  %47 = getelementptr inbounds [110 x i32], [110 x i32]* %2, i64 0, i64 %46
  store i32 %41, i32* %47, align 4
  br label %48

48:                                               ; preds = %34
  %49 = load i32, i32* %4, align 4
  %50 = add nsw i32 %49, -1
  store i32 %50, i32* %4, align 4
  br label %31

51:                                               ; preds = %31
  %52 = load i32, i32* %7, align 4
  store i32 %52, i32* %4, align 4
  br label %53

53:                                               ; preds = %70, %51
  %54 = load i32, i32* %4, align 4
  %55 = icmp sgt i32 %54, 0
  br i1 %55, label %56, label %73

56:                                               ; preds = %53
  %57 = load i32, i32* %4, align 4
  %58 = sub nsw i32 %57, 1
  %59 = sext i32 %58 to i64
  %60 = getelementptr inbounds [110 x i8], [110 x i8]* %11, i64 0, i64 %59
  %61 = load i8, i8* %60, align 1
  %62 = sext i8 %61 to i32
  %63 = sub nsw i32 %62, 48
  %64 = load i32, i32* %7, align 4
  %65 = load i32, i32* %4, align 4
  %66 = sub nsw i32 %64, %65
  %67 = add nsw i32 %66, 1
  %68 = sext i32 %67 to i64
  %69 = getelementptr inbounds [110 x i32], [110 x i32]* %9, i64 0, i64 %68
  store i32 %63, i32* %69, align 4
  br label %70

70:                                               ; preds = %56
  %71 = load i32, i32* %4, align 4
  %72 = add nsw i32 %71, -1
  store i32 %72, i32* %4, align 4
  br label %53

73:                                               ; preds = %53
  store i32 0, i32* %8, align 4
  store i32 1, i32* %4, align 4
  br label %74

74:                                               ; preds = %115, %73
  %75 = load i32, i32* %4, align 4
  %76 = load i32, i32* %6, align 4
  %77 = icmp sle i32 %75, %76
  br i1 %77, label %78, label %118

78:                                               ; preds = %74
  %79 = load i32, i32* %4, align 4
  %80 = sext i32 %79 to i64
  %81 = getelementptr inbounds [110 x i32], [110 x i32]* %2, i64 0, i64 %80
  %82 = load i32, i32* %81, align 4
  %83 = load i32, i32* %8, align 4
  %84 = sub nsw i32 %82, %83
  %85 = load i32, i32* %4, align 4
  %86 = sext i32 %85 to i64
  %87 = getelementptr inbounds [110 x i32], [110 x i32]* %2, i64 0, i64 %86
  store i32 %84, i32* %87, align 4
  %88 = load i32, i32* %4, align 4
  %89 = sext i32 %88 to i64
  %90 = getelementptr inbounds [110 x i32], [110 x i32]* %2, i64 0, i64 %89
  %91 = load i32, i32* %90, align 4
  %92 = load i32, i32* %4, align 4
  %93 = sext i32 %92 to i64
  %94 = getelementptr inbounds [110 x i32], [110 x i32]* %9, i64 0, i64 %93
  %95 = load i32, i32* %94, align 4
  %96 = icmp slt i32 %91, %95
  br i1 %96, label %97, label %98

97:                                               ; preds = %78
  store i32 1, i32* %8, align 4
  br label %99

98:                                               ; preds = %78
  store i32 0, i32* %8, align 4
  br label %99

99:                                               ; preds = %98, %97
  %100 = load i32, i32* %4, align 4
  %101 = sext i32 %100 to i64
  %102 = getelementptr inbounds [110 x i32], [110 x i32]* %2, i64 0, i64 %101
  %103 = load i32, i32* %102, align 4
  %104 = load i32, i32* %8, align 4
  %105 = mul nsw i32 %104, 10
  %106 = add nsw i32 %103, %105
  %107 = load i32, i32* %4, align 4
  %108 = sext i32 %107 to i64
  %109 = getelementptr inbounds [110 x i32], [110 x i32]* %9, i64 0, i64 %108
  %110 = load i32, i32* %109, align 4
  %111 = sub nsw i32 %106, %110
  %112 = load i32, i32* %4, align 4
  %113 = sext i32 %112 to i64
  %114 = getelementptr inbounds [110 x i32], [110 x i32]* %9, i64 0, i64 %113
  store i32 %111, i32* %114, align 4
  br label %115

115:                                              ; preds = %99
  %116 = load i32, i32* %4, align 4
  %117 = add nsw i32 %116, 1
  store i32 %117, i32* %4, align 4
  br label %74

118:                                              ; preds = %74
  br label %119

119:                                              ; preds = %130, %118
  %120 = load i32, i32* %6, align 4
  %121 = sext i32 %120 to i64
  %122 = getelementptr inbounds [110 x i32], [110 x i32]* %9, i64 0, i64 %121
  %123 = load i32, i32* %122, align 4
  %124 = icmp eq i32 %123, 0
  br i1 %124, label %125, label %128

125:                                              ; preds = %119
  %126 = load i32, i32* %6, align 4
  %127 = icmp sgt i32 %126, 0
  br label %128

128:                                              ; preds = %125, %119
  %129 = phi i1 [ false, %119 ], [ %127, %125 ]
  br i1 %129, label %130, label %133

130:                                              ; preds = %128
  %131 = load i32, i32* %6, align 4
  %132 = sub nsw i32 %131, 1
  store i32 %132, i32* %6, align 4
  br label %119

133:                                              ; preds = %128
  %134 = load i32, i32* %6, align 4
  store i32 %134, i32* %4, align 4
  br label %135

135:                                              ; preds = %147, %133
  %136 = load i32, i32* %4, align 4
  %137 = icmp sgt i32 %136, 0
  br i1 %137, label %138, label %150

138:                                              ; preds = %135
  %139 = load i32, i32* %4, align 4
  %140 = sext i32 %139 to i64
  %141 = getelementptr inbounds [110 x i32], [110 x i32]* %9, i64 0, i64 %140
  %142 = load i32, i32* %141, align 4
  %143 = call i32 (i8*, ...) @printf(i8* getelementptr inbounds ([3 x i8], [3 x i8]* @.str.1, i64 0, i64 0), i32 %142)
  %144 = load i32, i32* %4, align 4
  %145 = sext i32 %144 to i64
  %146 = getelementptr inbounds [110 x i32], [110 x i32]* %9, i64 0, i64 %145
  store i32 0, i32* %146, align 4
  br label %147

147:                                              ; preds = %138
  %148 = load i32, i32* %4, align 4
  %149 = add nsw i32 %148, -1
  store i32 %149, i32* %4, align 4
  br label %135

150:                                              ; preds = %135
  %151 = call i32 (i8*, ...) @printf(i8* getelementptr inbounds ([2 x i8], [2 x i8]* @.str.2, i64 0, i64 0))
  %152 = load i32, i32* %3, align 4
  %153 = load i32, i32* %5, align 4
  %154 = icmp slt i32 %152, %153
  br i1 %154, label %155, label %157

155:                                              ; preds = %150
  %156 = call i32 (i8*, ...) @__isoc99_scanf(i8* getelementptr inbounds ([2 x i8], [2 x i8]* @.str.2, i64 0, i64 0))
  br label %157

157:                                              ; preds = %155, %150
  br label %158

158:                                              ; preds = %157
  %159 = load i32, i32* %3, align 4
  %160 = add nsw i32 %159, 1
  store i32 %160, i32* %3, align 4
  br label %15

161:                                              ; preds = %15
  %162 = load i32, i32* %1, align 4
  ret i32 %162
}

; Function Attrs: argmemonly nounwind willreturn
declare void @llvm.memset.p0i8.i64(i8* nocapture writeonly, i8, i64, i1 immarg) #1

declare dso_local i32 @__isoc99_scanf(i8*, ...) #2

declare dso_local i32 @gets(...) #2

; Function Attrs: nounwind readonly
declare dso_local i64 @strlen(i8*) #3

declare dso_local i32 @printf(i8*, ...) #2


!llvm.module.flags = !{!0}
!llvm.ident = !{!1}

!0 = !{i32 1, !"wchar_size", i32 4}
!1 = !{!"clang version 10.0.0-4ubuntu1 "}
